target datalayout = "e-m:e-p270:32:32-p271:32:32-p272:64:64-i64:64-i128:128-f80:128-n8:16:32:64-S128"
target triple = "x86_64-pc-linux-gnu"

%struct.dynhds = type { ptr, i64, i64, i64, i64, i64, i32 }
%struct.dynhds_entry = type { ptr, ptr, i64, i64 }
%struct.nghttp2_nv = type { ptr, ptr, i64, i64, i8 }

@Curl_ccalloc = external global ptr, align 8

; Function Attrs: nounwind uwtable
define dso_local ptr @Curl_dynhds_to_nva(ptr noundef %0, ptr noundef %1) #0 {
  %3 = alloca ptr, align 8
  %4 = alloca ptr, align 8
  %5 = alloca ptr, align 8
  %6 = alloca ptr, align 8
  %7 = alloca i64, align 8
  %8 = alloca i32, align 4
  %9 = alloca ptr, align 8
  store ptr %0, ptr %4, align 8, !tbaa !4
  store ptr %1, ptr %5, align 8, !tbaa !43
  call void @llvm.lifetime.start.p0(i64 8, ptr %6) #5
  %10 = load ptr, ptr @Curl_ccalloc, align 8, !tbaa !25
  %11 = load ptr, ptr %4, align 8, !tbaa !4
  %12 = getelementptr inbounds nuw %struct.dynhds, ptr %11, i32 0, i32 1
  %13 = load i64, ptr %12, align 8, !tbaa !17
  %14 = mul i64 40, %13
  %15 = call ptr %10(i64 noundef 1, i64 noundef %14)
  store ptr %15, ptr %6, align 8, !tbaa !25
  call void @llvm.lifetime.start.p0(i64 8, ptr %7) #5
  %16 = load ptr, ptr %5, align 8, !tbaa !43
  store i64 0, ptr %16, align 8, !tbaa !9
  %17 = load ptr, ptr %6, align 8, !tbaa !25
  %18 = icmp ne ptr %17, null
  br i1 %18, label %20, label %19

19:                                               ; preds = %2
  store ptr null, ptr %3, align 8
  store i32 1, ptr %8, align 4
  br label %78

20:                                               ; preds = %2
  store i64 0, ptr %7, align 8, !tbaa !9
  br label %21

21:                                               ; preds = %69, %20
  %22 = load i64, ptr %7, align 8, !tbaa !9
  %23 = load ptr, ptr %4, align 8, !tbaa !4
  %24 = getelementptr inbounds nuw %struct.dynhds, ptr %23, i32 0, i32 1
  %25 = load i64, ptr %24, align 8, !tbaa !17
  %26 = icmp ult i64 %22, %25
  br i1 %26, label %27, label %72

27:                                               ; preds = %21
  call void @llvm.lifetime.start.p0(i64 8, ptr %9) #5
  %28 = load ptr, ptr %4, align 8, !tbaa !4
  %29 = getelementptr inbounds nuw %struct.dynhds, ptr %28, i32 0, i32 0
  %30 = load ptr, ptr %29, align 8, !tbaa !11
  %31 = load i64, ptr %7, align 8, !tbaa !9
  %32 = getelementptr inbounds nuw ptr, ptr %30, i64 %31
  %33 = load ptr, ptr %32, align 8, !tbaa !21
  store ptr %33, ptr %9, align 8, !tbaa !21
  br label %34

34:                                               ; preds = %27
  br label %35

35:                                               ; preds = %34
  br label %36

36:                                               ; preds = %35
  %37 = load ptr, ptr %9, align 8, !tbaa !21
  %38 = getelementptr inbounds nuw %struct.dynhds_entry, ptr %37, i32 0, i32 0
  %39 = load ptr, ptr %38, align 8, !tbaa !32
  %40 = load ptr, ptr %6, align 8, !tbaa !25
  %41 = load i64, ptr %7, align 8, !tbaa !9
  %42 = getelementptr inbounds nuw %struct.nghttp2_nv, ptr %40, i64 %41
  %43 = getelementptr inbounds nuw %struct.nghttp2_nv, ptr %42, i32 0, i32 0
  store ptr %39, ptr %43, align 8, !tbaa !45
  %44 = load ptr, ptr %9, align 8, !tbaa !21
  %45 = getelementptr inbounds nuw %struct.dynhds_entry, ptr %44, i32 0, i32 2
  %46 = load i64, ptr %45, align 8, !tbaa !30
  %47 = load ptr, ptr %6, align 8, !tbaa !25
  %48 = load i64, ptr %7, align 8, !tbaa !9
  %49 = getelementptr inbounds nuw %struct.nghttp2_nv, ptr %47, i64 %48
  %50 = getelementptr inbounds nuw %struct.nghttp2_nv, ptr %49, i32 0, i32 2
  store i64 %46, ptr %50, align 8, !tbaa !47
  %51 = load ptr, ptr %9, align 8, !tbaa !21
  %52 = getelementptr inbounds nuw %struct.dynhds_entry, ptr %51, i32 0, i32 1
  %53 = load ptr, ptr %52, align 8, !tbaa !35
  %54 = load ptr, ptr %6, align 8, !tbaa !25
  %55 = load i64, ptr %7, align 8, !tbaa !9
  %56 = getelementptr inbounds nuw %struct.nghttp2_nv, ptr %54, i64 %55
  %57 = getelementptr inbounds nuw %struct.nghttp2_nv, ptr %56, i32 0, i32 1
  store ptr %53, ptr %57, align 8, !tbaa !48
  %58 = load ptr, ptr %9, align 8, !tbaa !21
  %59 = getelementptr inbounds nuw %struct.dynhds_entry, ptr %58, i32 0, i32 3
  %60 = load i64, ptr %59, align 8, !tbaa !36
  %61 = load ptr, ptr %6, align 8, !tbaa !25
  %62 = load i64, ptr %7, align 8, !tbaa !9
  %63 = getelementptr inbounds nuw %struct.nghttp2_nv, ptr %61, i64 %62
  %64 = getelementptr inbounds nuw %struct.nghttp2_nv, ptr %63, i32 0, i32 3
  store i64 %60, ptr %64, align 8, !tbaa !49
  %65 = load ptr, ptr %6, align 8, !tbaa !25
  %66 = load i64, ptr %7, align 8, !tbaa !9
  %67 = getelementptr inbounds nuw %struct.nghttp2_nv, ptr %65, i64 %66
  %68 = getelementptr inbounds nuw %struct.nghttp2_nv, ptr %67, i32 0, i32 4
  store i8 0, ptr %68, align 8, !tbaa !50
  call void @llvm.lifetime.end.p0(i64 8, ptr %9) #5
  br label %69

69:                                               ; preds = %36
  %70 = load i64, ptr %7, align 8, !tbaa !9
  %71 = add i64 %70, 1
  store i64 %71, ptr %7, align 8, !tbaa !9
  br label %21, !llvm.loop !51

72:                                               ; preds = %21
  %73 = load ptr, ptr %4, align 8, !tbaa !4
  %74 = getelementptr inbounds nuw %struct.dynhds, ptr %73, i32 0, i32 1
  %75 = load i64, ptr %74, align 8, !tbaa !17
  %76 = load ptr, ptr %5, align 8, !tbaa !43
  store i64 %75, ptr %76, align 8, !tbaa !9
  %77 = load ptr, ptr %6, align 8, !tbaa !25
  store ptr %77, ptr %3, align 8
  store i32 1, ptr %8, align 4
  br label %78

78:                                               ; preds = %72, %19
  call void @llvm.lifetime.end.p0(i64 8, ptr %7) #5
  call void @llvm.lifetime.end.p0(i64 8, ptr %6) #5
  %79 = load ptr, ptr %3, align 8
  ret ptr %79
}