; Function Attrs: nounwind uwtable
define dso_local ptr @Curl_dynhds_to_nva(ptr noundef readonly captures(none) %0, ptr noundef writeonly captures(none) initializes((0, 8)) %1) local_unnamed_addr #1 {
  %3 = load ptr, ptr @Curl_ccalloc, align 8, !tbaa !19
  %4 = getelementptr inbounds nuw i8, ptr %0, i64 8
  %5 = load i64, ptr %4, align 8, !tbaa !16
  %6 = mul i64 %5, 40
  %7 = tail call ptr %3(i64 noundef 1, i64 noundef %6) #9
  store i64 0, ptr %1, align 8, !tbaa !35
  %.not = icmp eq ptr %7, null
  br i1 %.not, label %26, label %.preheader

.preheader:                                       ; preds = %2
  %8 = load i64, ptr %4, align 8, !tbaa !16
  %.not29 = icmp eq i64 %8, 0
  br i1 %.not29, label %._crit_edge, label %.lr.ph

.lr.ph:                                           ; preds = %.preheader
  %9 = load ptr, ptr %0, align 8, !tbaa !15
  br label %10

10:                                               ; preds = %.lr.ph, %10
  %.02528 = phi i64 [ 0, %.lr.ph ], [ %25, %10 ]
  %11 = getelementptr inbounds nuw ptr, ptr %9, i64 %.02528
  %12 = load ptr, ptr %11, align 8, !tbaa !17
  %13 = load ptr, ptr %12, align 8, !tbaa !26
  %14 = getelementptr inbounds nuw %struct.nghttp2_nv, ptr %7, i64 %.02528
  store ptr %13, ptr %14, align 8, !tbaa !36
  %15 = getelementptr inbounds nuw i8, ptr %12, i64 16
  %16 = load i64, ptr %15, align 8, !tbaa !23
  %17 = getelementptr inbounds nuw i8, ptr %14, i64 16
  store i64 %16, ptr %17, align 8, !tbaa !38
  %18 = getelementptr inbounds nuw i8, ptr %12, i64 8
  %19 = load ptr, ptr %18, align 8, !tbaa !28
  %20 = getelementptr inbounds nuw i8, ptr %14, i64 8
  store ptr %19, ptr %20, align 8, !tbaa !39
  %21 = getelementptr inbounds nuw i8, ptr %12, i64 24
  %22 = load i64, ptr %21, align 8, !tbaa !29
  %23 = getelementptr inbounds nuw i8, ptr %14, i64 24
  store i64 %22, ptr %23, align 8, !tbaa !40
  %24 = getelementptr inbounds nuw i8, ptr %14, i64 32
  store i8 0, ptr %24, align 8, !tbaa !41
  %25 = add nuw i64 %.02528, 1
  %exitcond.not = icmp eq i64 %25, %8
  br i1 %exitcond.not, label %._crit_edge, label %10, !llvm.loop !42

._crit_edge:                                      ; preds = %10, %.preheader
  store i64 %8, ptr %1, align 8, !tbaa !35
  br label %26

26:                                               ; preds = %2, %._crit_edge
  ret ptr %7
}